Certificate:
    Data:
        Version: 3 (0x2)
        Serial Number: 1 (0x1)
        Signature Algorithm: sha1WithRSAEncryption
        Issuer: DC=test, DC=fcm, O=FCM Change Risk Estimator, OU=Root CA, CN=CRE PKI
        Validity
            Not Before: Sep 10 20:52:59 2020 GMT
            Not After : Sep 10 20:52:59 2030 GMT
        Subject: DC=test, DC=fcm, O=FCM Change Risk Estimator, OU=Root CA, CN=CRE PKI
        Subject Public Key Info:
            Public Key Algorithm: rsaEncryption
                RSA Public-Key: (4096 bit)
                Modulus:
                    00:d0:61:7f:69:ab:08:5c:17:1a:99:5a:e9:33:d6:
                    91:60:6a:9e:b5:0e:fe:39:6c:1b:ca:06:94:4f:8f:
                    5f:a9:6f:a7:fc:9e:87:02:36:a3:ba:37:6f:33:e5:
                    4e:01:68:84:44:e1:f7:23:65:fc:50:47:5d:8e:f8:
                    b6:0c:33:04:89:95:4d:61:ef:ee:5e:b9:1f:0e:12:
                    cf:20:39:a0:5e:6e:ef:31:31:59:73:e5:06:b4:9f:
                    b7:13:08:84:0f:c9:ee:98:f2:39:7b:e6:0e:fa:b9:
                    90:d7:e5:18:62:5a:36:7e:1a:c4:26:24:02:ba:4b:
                    1a:19:77:d5:d1:81:91:ee:78:56:47:22:43:1b:98:
                    da:79:a5:ad:15:a9:46:09:6f:a9:86:cc:f9:a1:18:
                    c5:b8:22:69:eb:60:1b:b7:1a:68:57:ab:5a:d1:76:
                    ad:b5:de:e5:72:aa:c8:e5:6e:32:bb:7a:ee:bf:8a:
                    81:42:a5:ca:76:16:f5:03:de:ab:9b:a9:d9:be:fc:
                    a8:d4:5c:64:57:64:88:77:fc:86:c8:7f:e1:92:38:
                    9c:21:e8:96:8d:dd:a1:65:ae:56:82:8a:01:d9:d3:
                    cf:a2:17:d2:97:5b:e5:be:19:2a:b7:2c:bf:3e:35:
                    8d:90:ab:90:39:01:8b:6c:f7:fc:50:3f:75:b2:d4:
                    d5:a4:d6:73:5f:ee:a3:44:2f:8c:c1:1c:ae:7c:48:
                    f2:44:33:e3:01:93:a1:6c:32:9e:64:a2:04:4a:8e:
                    10:34:19:42:ba:b7:e6:ea:15:3e:6d:5d:2c:2c:2f:
                    0c:d6:d9:40:ea:cd:6f:5b:b4:30:3d:40:97:33:ab:
                    53:fa:20:3e:a5:2d:12:cb:7d:cf:f6:4c:35:1c:06:
                    9e:8f:11:fa:6e:b4:ea:e2:38:c8:38:07:b7:15:11:
                    80:13:f6:46:cc:c0:25:72:10:93:0f:59:89:89:de:
                    23:1a:49:d6:bc:06:7e:bb:c2:c3:31:96:8f:7b:1b:
                    cf:72:d1:b5:82:3a:a3:c9:a9:e5:de:dd:95:b8:d7:
                    bd:c4:b9:bb:d4:16:63:81:62:16:5d:1b:58:f7:c6:
                    4c:ea:de:e4:a5:b6:0f:39:40:2f:24:23:aa:dc:5a:
                    dd:93:f7:ca:28:f5:62:33:a8:6a:5e:11:5c:ef:39:
                    2d:06:ef:4a:6f:0b:37:99:af:e6:8a:e1:76:92:bc:
                    01:3b:a3:98:5b:5c:07:07:c4:80:38:d4:58:c9:43:
                    69:78:b1:45:d2:a5:66:cd:88:7d:7a:e4:42:07:70:
                    8f:9a:5a:99:1c:35:6c:dc:95:8f:26:4e:d7:ec:e8:
                    7f:30:ea:4e:1b:f8:68:93:2c:c8:42:41:43:e7:c0:
                    ca:b5:41
                Exponent: 65537 (0x10001)
        X509v3 extensions:
            X509v3 Key Usage: critical
                Certificate Sign, CRL Sign
            X509v3 Basic Constraints: critical
                CA:TRUE
            X509v3 Subject Key Identifier: 
                20:C2:D1:07:41:E9:9C:14:6F:BD:7B:91:67:2E:22:F4:88:77:3E:8C
            X509v3 Authority Key Identifier: 
                keyid:20:C2:D1:07:41:E9:9C:14:6F:BD:7B:91:67:2E:22:F4:88:77:3E:8C

    Signature Algorithm: sha1WithRSAEncryption
         9f:e9:d5:3c:ab:69:c4:bd:65:2b:6b:2d:ac:8b:3a:36:14:e9:
         34:5d:f8:cf:49:89:50:3f:33:8a:7d:a6:dc:1d:61:14:eb:06:
         cc:4b:df:6a:dd:70:41:33:77:9a:37:1f:9f:3b:95:82:7b:83:
         83:de:21:d6:7f:5a:a7:38:7b:58:44:55:ad:96:eb:35:80:23:
         aa:85:aa:21:ab:19:55:ac:97:3f:2b:36:48:3f:4b:94:65:9a:
         08:2b:96:b0:6c:e8:8c:dd:44:2c:00:d6:b5:21:60:b2:b4:0b:
         50:89:1a:bd:d5:ea:a8:08:7b:ca:87:ee:2d:ed:04:65:ee:9d:
         c7:14:52:e3:0e:6c:4a:42:18:8c:a7:1d:2a:b4:65:10:05:02:
         82:e1:b7:6a:11:7e:13:df:66:01:28:a7:b4:43:ba:d3:c1:68:
         46:40:75:bc:4c:5b:c4:a8:32:a5:7c:01:8b:a4:8d:74:da:fc:
         13:c8:ef:8f:f2:60:6f:08:0e:9d:db:d6:45:62:7f:db:db:d6:
         2a:c7:bc:dd:20:3c:3e:cc:4d:da:bd:ad:77:3f:c7:e2:37:37:
         19:a4:5d:4a:5f:c3:02:49:3b:78:30:82:da:71:35:d7:13:87:
         6a:da:52:65:84:13:f0:bd:70:8e:40:c6:29:24:e8:d0:9c:c1:
         00:a9:39:ec:dc:a9:7c:0f:8b:fa:98:f5:fa:90:41:32:ea:88:
         6a:f2:e1:15:bd:3d:07:65:30:11:b7:5e:6b:6f:4f:7a:fd:92:
         5f:6e:16:3f:49:a4:46:8d:d7:14:b7:ca:12:15:32:81:7b:68:
         53:87:61:02:b0:9e:db:49:83:bd:a0:60:d1:ff:7f:df:46:f2:
         e7:f7:ef:a1:a1:a1:6a:22:81:31:8a:aa:16:68:e5:37:29:6e:
         b4:cd:ef:48:7d:b8:7d:f6:53:e4:a5:c6:c8:4d:d2:e7:df:76:
         00:7d:cf:6f:99:0f:ff:8c:e1:d7:74:a2:ce:e9:30:49:24:2a:
         62:12:0c:b0:53:e5:0d:eb:c1:63:7f:90:61:6c:5b:e2:ff:83:
         2c:80:cc:3a:ce:9f:fd:34:85:3f:aa:3d:92:4c:cc:bb:7a:9b:
         0f:fc:f1:8b:5b:8e:9b:50:12:ee:69:bd:b5:82:35:1a:30:02:
         a5:b5:7e:02:f7:df:7e:ea:d6:31:77:d3:8f:cd:4b:f6:6b:02:
         0a:32:29:65:db:06:ca:f9:ba:14:83:52:c8:e7:d2:9b:39:54:
         14:22:ba:12:84:55:f5:82:47:54:7e:e3:98:4e:6b:1c:4b:8a:
         a4:d8:b2:01:19:c2:a4:b6:f9:c2:96:1f:e5:56:81:4f:4d:be:
         57:56:c6:15:35:09:56:5e
-----BEGIN CERTIFICATE-----
MIIFxDCCA6ygAwIBAgIBATANBgkqhkiG9w0BAQUFADBzMRQwEgYKCZImiZPyLGQB
GRYEdGVzdDETMBEGCgmSJomT8ixkARkWA2ZjbTEiMCAGA1UECgwZRkNNIENoYW5n
ZSBSaXNrIEVzdGltYXRvcjEQMA4GA1UECwwHUm9vdCBDQTEQMA4GA1UEAwwHQ1JF
IFBLSTAeFw0yMDA5MTAyMDUyNTlaFw0zMDA5MTAyMDUyNTlaMHMxFDASBgoJkiaJ
k/IsZAEZFgR0ZXN0MRMwEQYKCZImiZPyLGQBGRYDZmNtMSIwIAYDVQQKDBlGQ00g
Q2hhbmdlIFJpc2sgRXN0aW1hdG9yMRAwDgYDVQQLDAdSb290IENBMRAwDgYDVQQD
DAdDUkUgUEtJMIICIjANBgkqhkiG9w0BAQEFAAOCAg8AMIICCgKCAgEA0GF/aasI
XBcamVrpM9aRYGqetQ7+OWwbygaUT49fqW+n/J6HAjajujdvM+VOAWiEROH3I2X8
UEddjvi2DDMEiZVNYe/uXrkfDhLPIDmgXm7vMTFZc+UGtJ+3EwiED8numPI5e+YO
+rmQ1+UYYlo2fhrEJiQCuksaGXfV0YGR7nhWRyJDG5jaeaWtFalGCW+phsz5oRjF
uCJp62AbtxpoV6ta0Xattd7lcqrI5W4yu3ruv4qBQqXKdhb1A96rm6nZvvyo1Fxk
V2SId/yGyH/hkjicIeiWjd2hZa5WgooB2dPPohfSl1vlvhkqtyy/PjWNkKuQOQGL
bPf8UD91stTVpNZzX+6jRC+MwRyufEjyRDPjAZOhbDKeZKIESo4QNBlCurfm6hU+
bV0sLC8M1tlA6s1vW7QwPUCXM6tT+iA+pS0Sy33P9kw1HAaejxH6brTq4jjIOAe3
FRGAE/ZGzMAlchCTD1mJid4jGknWvAZ+u8LDMZaPexvPctG1gjqjyanl3t2VuNe9
xLm71BZjgWIWXRtY98ZM6t7kpbYPOUAvJCOq3Frdk/fKKPViM6hqXhFc7zktBu9K
bws3ma/miuF2krwBO6OYW1wHB8SAONRYyUNpeLFF0qVmzYh9euRCB3CPmlqZHDVs
3JWPJk7X7Oh/MOpOG/hokyzIQkFD58DKtUECAwEAAaNjMGEwDgYDVR0PAQH/BAQD
AgEGMA8GA1UdEwEB/wQFMAMBAf8wHQYDVR0OBBYEFCDC0QdB6ZwUb717kWcuIvSI
dz6MMB8GA1UdIwQYMBaAFCDC0QdB6ZwUb717kWcuIvSIdz6MMA0GCSqGSIb3DQEB
BQUAA4ICAQCf6dU8q2nEvWUray2sizo2FOk0XfjPSYlQPzOKfabcHWEU6wbMS99q
3XBBM3eaNx+fO5WCe4OD3iHWf1qnOHtYRFWtlus1gCOqhaohqxlVrJc/KzZIP0uU
ZZoIK5awbOiM3UQsANa1IWCytAtQiRq91eqoCHvKh+4t7QRl7p3HFFLjDmxKQhiM
px0qtGUQBQKC4bdqEX4T32YBKKe0Q7rTwWhGQHW8TFvEqDKlfAGLpI102vwTyO+P
8mBvCA6d29ZFYn/b29Yqx7zdIDw+zE3ava13P8fiNzcZpF1KX8MCSTt4MILacTXX
E4dq2lJlhBPwvXCOQMYpJOjQnMEAqTns3Kl8D4v6mPX6kEEy6ohq8uEVvT0HZTAR
t15rb096/ZJfbhY/SaRGjdcUt8oSFTKBe2hTh2ECsJ7bSYO9oGDR/3/fRvLn9++h
oaFqIoExiqoWaOU3KW60ze9Ifbh99lPkpcbITdLn33YAfc9vmQ//jOHXdKLO6TBJ
JCpiEgywU+UN68Fjf5BhbFvi/4MsgMw6zp/9NIU/qj2STMy7epsP/PGLW46bUBLu
ab21gjUaMAKltX4C999+6tYxd9OPzUv2awIKMill2wbK+boUg1LI59KbOVQUIroS
hFX1gkdUfuOYTmscS4qk2LIBGcKktvnClh/lVoFPTb5XVsYVNQlWXg==
-----END CERTIFICATE-----
