Certificate:
    Data:
        Version: 3 (0x2)
        Serial Number: 2 (0x2)
        Signature Algorithm: sha1WithRSAEncryption
        Issuer: DC=test, DC=fcm, O=FCM Change Risk Estimator, OU=Root CA, CN=CRE PKI
        Validity
            Not Before: Sep 10 20:55:59 2020 GMT
            Not After : Sep 10 20:55:59 2030 GMT
        Subject: DC=test, DC=fcm, O=FCM Change Risk Estimator, OU=Change Risk Estimator, CN=cre
        Subject Public Key Info:
            Public Key Algorithm: rsaEncryption
                RSA Public-Key: (2048 bit)
                Modulus:
                    00:ba:7c:88:9b:87:ff:df:3d:28:3e:fb:5d:98:6a:
                    19:c3:4d:47:0f:e1:6e:8d:1a:e8:23:57:bb:1a:75:
                    8b:3c:e5:7d:89:7b:2f:24:d1:0a:31:e1:bf:8a:c5:
                    99:11:31:41:d1:70:9e:c9:d7:97:11:c2:67:13:b2:
                    c3:be:17:c1:94:94:72:d8:0d:5a:be:8c:64:5e:02:
                    21:a0:43:15:34:af:b9:e6:53:36:ff:26:59:f3:3a:
                    0a:ef:d8:4e:d7:8e:f1:4f:03:41:94:ee:c3:36:65:
                    c2:09:bb:8e:d7:42:eb:7e:a8:41:0f:50:de:f0:41:
                    b3:b4:77:ba:c5:7a:91:8f:c5:a1:86:52:c1:41:a6:
                    9c:21:f7:ab:63:f4:30:d7:d7:14:8a:52:6a:7d:d3:
                    09:bb:38:d9:6c:84:91:72:ab:28:f4:a5:6d:62:a4:
                    09:67:ec:9a:5b:b9:e1:a9:e7:5d:06:97:63:c0:b8:
                    5f:95:d1:d5:91:0c:c9:e1:d0:b7:6d:10:c6:f5:ef:
                    10:68:ae:b5:40:2a:41:5c:a8:96:07:36:62:39:25:
                    2a:51:25:8f:82:89:f4:f5:80:78:18:06:98:0b:5a:
                    39:58:31:59:01:bc:f4:94:9c:1d:bc:db:91:da:d6:
                    3f:4a:c2:68:fa:6d:1b:85:d9:4f:86:70:b2:35:cf:
                    ce:e1
                Exponent: 65537 (0x10001)
        X509v3 extensions:
            X509v3 Key Usage: critical
                Digital Signature, Key Encipherment
            X509v3 Basic Constraints: 
                CA:FALSE
            X509v3 Extended Key Usage: 
                TLS Web Server Authentication, TLS Web Client Authentication
            X509v3 Subject Key Identifier: 
                79:B7:3D:4B:DE:35:E2:ED:86:9E:36:E6:6B:E5:BE:D5:E8:EC:79:1C
            X509v3 Authority Key Identifier: 
                keyid:20:C2:D1:07:41:E9:9C:14:6F:BD:7B:91:67:2E:22:F4:88:77:3E:8C

    Signature Algorithm: sha1WithRSAEncryption
         bf:d7:09:da:63:a7:32:f6:de:7d:7b:ec:97:92:82:ed:e6:b0:
         a4:de:ed:2b:0c:7c:13:49:d2:d4:a3:41:09:f5:3b:53:92:7c:
         50:dc:3e:64:94:bb:60:c6:3c:8c:73:5a:e3:43:da:ad:b3:a5:
         b6:b3:f8:25:15:df:ff:3f:08:50:c4:a8:69:6d:fa:22:b5:cb:
         f4:09:51:69:16:06:90:63:18:8f:2c:c4:a0:d3:de:35:da:70:
         05:56:39:45:96:5e:f9:9f:31:83:13:f0:06:02:94:74:4d:66:
         ca:63:0f:e0:8a:ec:8e:aa:eb:ac:02:b1:44:41:2e:00:e8:8c:
         3f:dc:9b:02:46:06:c8:c7:92:2c:7b:b1:2f:10:22:4e:d2:89:
         c4:22:99:7c:3e:41:a8:75:23:b3:af:90:16:78:61:0f:8d:3c:
         e5:aa:5b:5c:51:df:b8:ea:01:59:4f:c6:47:1a:a5:e6:1e:9a:
         04:ce:31:98:bf:81:35:2c:6d:03:45:4f:8b:4e:4b:01:34:96:
         2c:b9:f4:20:5d:00:d6:33:18:c3:bc:5b:8d:54:f3:ff:98:d9:
         3e:32:d6:90:b8:6c:64:6e:ba:14:21:b4:cc:45:51:9a:67:31:
         e7:fd:b4:53:58:9b:1f:90:fe:24:54:43:77:47:88:b4:16:79:
         46:b4:81:df:a0:29:e0:ea:dd:4f:8d:3d:45:35:67:be:ef:9e:
         b7:e2:fd:27:b7:73:de:54:95:90:1b:f9:d7:36:4f:ee:98:22:
         e8:9a:d6:db:65:ce:40:27:c1:24:59:3d:72:1b:70:5e:5b:23:
         34:28:3f:b0:22:b9:d2:5a:02:3f:06:6c:4e:3b:5f:69:cb:73:
         77:58:ef:c4:8a:f3:0c:b6:82:46:be:94:fa:bb:d2:de:9d:36:
         80:c0:f8:9f:b3:16:2a:df:25:21:fd:a6:e2:16:af:34:73:56:
         f0:98:a4:ac:b3:a2:e4:86:e0:24:ff:bf:09:8a:81:d4:14:a6:
         1b:32:a5:f5:23:2d:e8:e4:27:09:f3:94:c5:74:b4:cc:9d:7e:
         ae:50:f5:0e:c1:b4:0e:6b:1e:8a:77:47:95:0b:68:12:91:c5:
         63:d8:0e:94:16:8b:54:5a:d5:1b:49:82:d1:e7:1a:93:95:7d:
         df:3a:b7:a1:2e:5b:55:11:09:3e:4f:fc:1c:fe:3a:fe:73:f1:
         f0:32:ec:96:88:e9:61:7a:46:2a:70:f5:42:92:c4:0c:67:8d:
         34:c2:b5:67:c0:15:fb:bf:6c:99:a0:87:e9:ae:57:40:bd:bf:
         4a:eb:cc:4d:38:83:4a:11:6f:4c:e8:9b:b9:21:20:39:57:89:
         f7:e7:9e:d7:63:4f:b9:29
-----BEGIN CERTIFICATE-----
MIIE5zCCAs+gAwIBAgIBAjANBgkqhkiG9w0BAQUFADBzMRQwEgYKCZImiZPyLGQB
GRYEdGVzdDETMBEGCgmSJomT8ixkARkWA2ZjbTEiMCAGA1UECgwZRkNNIENoYW5n
ZSBSaXNrIEVzdGltYXRvcjEQMA4GA1UECwwHUm9vdCBDQTEQMA4GA1UEAwwHQ1JF
IFBLSTAeFw0yMDA5MTAyMDU1NTlaFw0zMDA5MTAyMDU1NTlaMH0xFDASBgoJkiaJ
k/IsZAEZFgR0ZXN0MRMwEQYKCZImiZPyLGQBGRYDZmNtMSIwIAYDVQQKDBlGQ00g
Q2hhbmdlIFJpc2sgRXN0aW1hdG9yMR4wHAYDVQQLDBVDaGFuZ2UgUmlzayBFc3Rp
bWF0b3IxDDAKBgNVBAMMA2NyZTCCASIwDQYJKoZIhvcNAQEBBQADggEPADCCAQoC
ggEBALp8iJuH/989KD77XZhqGcNNRw/hbo0a6CNXuxp1izzlfYl7LyTRCjHhv4rF
mRExQdFwnsnXlxHCZxOyw74XwZSUctgNWr6MZF4CIaBDFTSvueZTNv8mWfM6Cu/Y
TteO8U8DQZTuwzZlwgm7jtdC636oQQ9Q3vBBs7R3usV6kY/FoYZSwUGmnCH3q2P0
MNfXFIpSan3TCbs42WyEkXKrKPSlbWKkCWfsmlu54annXQaXY8C4X5XR1ZEMyeHQ
t20QxvXvEGiutUAqQVyolgc2YjklKlElj4KJ9PWAeBgGmAtaOVgxWQG89JScHbzb
kdrWP0rCaPptG4XZT4ZwsjXPzuECAwEAAaN8MHowDgYDVR0PAQH/BAQDAgWgMAkG
A1UdEwQCMAAwHQYDVR0lBBYwFAYIKwYBBQUHAwEGCCsGAQUFBwMCMB0GA1UdDgQW
BBR5tz1L3jXi7YaeNuZr5b7V6Ox5HDAfBgNVHSMEGDAWgBQgwtEHQemcFG+9e5Fn
LiL0iHc+jDANBgkqhkiG9w0BAQUFAAOCAgEAv9cJ2mOnMvbefXvsl5KC7eawpN7t
Kwx8E0nS1KNBCfU7U5J8UNw+ZJS7YMY8jHNa40ParbOltrP4JRXf/z8IUMSoaW36
IrXL9AlRaRYGkGMYjyzEoNPeNdpwBVY5RZZe+Z8xgxPwBgKUdE1mymMP4Irsjqrr
rAKxREEuAOiMP9ybAkYGyMeSLHuxLxAiTtKJxCKZfD5BqHUjs6+QFnhhD4085apb
XFHfuOoBWU/GRxql5h6aBM4xmL+BNSxtA0VPi05LATSWLLn0IF0A1jMYw7xbjVTz
/5jZPjLWkLhsZG66FCG0zEVRmmcx5/20U1ibH5D+JFRDd0eItBZ5RrSB36Ap4Ord
T409RTVnvu+et+L9J7dz3lSVkBv51zZP7pgi6JrW22XOQCfBJFk9chtwXlsjNCg/
sCK50loCPwZsTjtfactzd1jvxIrzDLaCRr6U+rvS3p02gMD4n7MWKt8lIf2m4hav
NHNW8JikrLOi5IbgJP+/CYqB1BSmGzKl9SMt6OQnCfOUxXS0zJ1+rlD1DsG0Dmse
indHlQtoEpHFY9gOlBaLVFrVG0mC0ecak5V93zq3oS5bVREJPk/8HP46/nPx8DLs
lojpYXpGKnD1QpLEDGeNNMK1Z8AV+79smaCH6a5XQL2/SuvMTTiDShFvTOibuSEg
OVeJ9+ee12NPuSk=
-----END CERTIFICATE-----
