Certificate:
    Data:
        Version: 3 (0x2)
        Serial Number: 3 (0x3)
        Signature Algorithm: sha1WithRSAEncryption
        Issuer: DC=test, DC=fcm, O=FCM Change Risk Estimator, OU=Root CA, CN=CRE PKI
        Validity
            Not Before: Sep 10 21:02:33 2020 GMT
            Not After : Sep 10 21:02:33 2030 GMT
        Subject: DC=test, DC=fcm, O=FCM Change Risk Estimator, OU=Change Risk Estimator, CN=cre
        Subject Public Key Info:
            Public Key Algorithm: rsaEncryption
                RSA Public-Key: (2048 bit)
                Modulus:
                    00:ba:7c:88:9b:87:ff:df:3d:28:3e:fb:5d:98:6a:
                    19:c3:4d:47:0f:e1:6e:8d:1a:e8:23:57:bb:1a:75:
                    8b:3c:e5:7d:89:7b:2f:24:d1:0a:31:e1:bf:8a:c5:
                    99:11:31:41:d1:70:9e:c9:d7:97:11:c2:67:13:b2:
                    c3:be:17:c1:94:94:72:d8:0d:5a:be:8c:64:5e:02:
                    21:a0:43:15:34:af:b9:e6:53:36:ff:26:59:f3:3a:
                    0a:ef:d8:4e:d7:8e:f1:4f:03:41:94:ee:c3:36:65:
                    c2:09:bb:8e:d7:42:eb:7e:a8:41:0f:50:de:f0:41:
                    b3:b4:77:ba:c5:7a:91:8f:c5:a1:86:52:c1:41:a6:
                    9c:21:f7:ab:63:f4:30:d7:d7:14:8a:52:6a:7d:d3:
                    09:bb:38:d9:6c:84:91:72:ab:28:f4:a5:6d:62:a4:
                    09:67:ec:9a:5b:b9:e1:a9:e7:5d:06:97:63:c0:b8:
                    5f:95:d1:d5:91:0c:c9:e1:d0:b7:6d:10:c6:f5:ef:
                    10:68:ae:b5:40:2a:41:5c:a8:96:07:36:62:39:25:
                    2a:51:25:8f:82:89:f4:f5:80:78:18:06:98:0b:5a:
                    39:58:31:59:01:bc:f4:94:9c:1d:bc:db:91:da:d6:
                    3f:4a:c2:68:fa:6d:1b:85:d9:4f:86:70:b2:35:cf:
                    ce:e1
                Exponent: 65537 (0x10001)
        X509v3 extensions:
            X509v3 Key Usage: critical
                Digital Signature, Key Encipherment
            X509v3 Basic Constraints: 
                CA:FALSE
            X509v3 Extended Key Usage: 
                TLS Web Server Authentication, TLS Web Client Authentication
            X509v3 Subject Key Identifier: 
                79:B7:3D:4B:DE:35:E2:ED:86:9E:36:E6:6B:E5:BE:D5:E8:EC:79:1C
            X509v3 Authority Key Identifier: 
                keyid:20:C2:D1:07:41:E9:9C:14:6F:BD:7B:91:67:2E:22:F4:88:77:3E:8C

    Signature Algorithm: sha1WithRSAEncryption
         b9:d2:f1:a2:97:f5:e8:d9:35:b3:23:83:93:ff:3f:3c:a4:e1:
         d9:0d:bb:d6:42:04:be:4d:4f:c1:5e:46:a7:1d:63:03:b4:bd:
         a0:0d:27:52:e9:eb:72:e4:1e:f7:df:a2:7e:0c:b9:57:58:be:
         0f:01:d4:8c:ee:12:5c:16:3a:46:3b:e1:29:ab:0c:5f:43:73:
         03:6a:8e:94:57:4a:f4:fe:7f:b4:ae:bf:d0:c8:49:87:c8:84:
         83:0d:ac:94:b3:e1:fd:ff:0d:e1:84:36:28:9b:8b:ec:c5:d1:
         3b:bd:aa:bf:2a:b0:c8:70:86:3f:68:fb:e4:52:99:25:60:cf:
         41:f6:aa:12:e3:0a:30:45:f1:f7:c0:2f:aa:0d:69:ec:0b:ee:
         bb:79:62:c2:cb:6c:6e:97:5d:be:7b:70:86:6b:da:39:6f:ce:
         3e:f3:36:f6:a7:cd:98:b2:f9:88:6c:13:f1:46:9f:bc:3a:90:
         00:a1:b9:eb:1b:8c:29:ff:76:f0:94:d9:a2:c6:26:ec:a5:44:
         0c:4d:16:6a:5d:3a:32:10:9c:60:06:ab:4c:31:ed:05:cd:74:
         d2:97:a7:16:df:db:0e:cb:56:6d:ce:29:1a:c0:9e:27:ab:3b:
         85:58:e7:d6:37:4a:e2:8d:cc:a4:57:00:b3:c3:3b:7c:e1:34:
         6a:f7:62:96:ce:ea:03:44:d3:45:1d:03:5b:39:3d:9b:b1:d7:
         23:bb:e2:5c:55:80:20:87:16:4a:c6:94:4e:72:4a:d0:9d:ef:
         7a:28:ab:e2:d7:18:33:fe:28:eb:d2:e0:56:e1:6a:b4:e8:6e:
         37:cd:90:4c:ec:d8:7b:30:b5:e7:89:5f:ab:8f:12:cf:f0:2d:
         99:61:67:09:55:c8:be:c4:2e:7f:8e:39:31:cc:d5:34:dc:21:
         37:34:b5:f5:08:01:55:fd:13:f4:3d:ad:c8:7a:ef:ec:09:90:
         5b:97:85:2c:b7:69:52:90:62:63:80:0e:fe:25:95:58:2e:98:
         71:91:a2:e4:4d:77:e3:f6:83:1b:87:96:37:be:fa:9c:b5:b9:
         04:85:53:e8:54:6f:c6:c5:0f:81:94:11:3a:c0:11:af:fc:2a:
         e9:a0:ff:f3:ba:92:e1:46:5f:b2:c4:65:fa:03:75:ee:57:c6:
         2d:24:ec:f2:00:69:7a:1b:b6:ae:47:97:ea:a9:42:4e:a2:27:
         55:da:0a:1d:40:8b:b7:44:7f:5a:cc:50:11:f0:9f:21:5a:da:
         76:65:13:28:7d:08:e6:c5:95:89:fa:30:50:0a:bd:f1:dc:89:
         25:a5:e4:bd:4c:0f:36:64:be:6d:ad:9a:30:c2:94:93:28:84:
         45:4a:42:f2:b0:48:f8:83
-----BEGIN CERTIFICATE-----
MIIE5zCCAs+gAwIBAgIBAzANBgkqhkiG9w0BAQUFADBzMRQwEgYKCZImiZPyLGQB
GRYEdGVzdDETMBEGCgmSJomT8ixkARkWA2ZjbTEiMCAGA1UECgwZRkNNIENoYW5n
ZSBSaXNrIEVzdGltYXRvcjEQMA4GA1UECwwHUm9vdCBDQTEQMA4GA1UEAwwHQ1JF
IFBLSTAeFw0yMDA5MTAyMTAyMzNaFw0zMDA5MTAyMTAyMzNaMH0xFDASBgoJkiaJ
k/IsZAEZFgR0ZXN0MRMwEQYKCZImiZPyLGQBGRYDZmNtMSIwIAYDVQQKDBlGQ00g
Q2hhbmdlIFJpc2sgRXN0aW1hdG9yMR4wHAYDVQQLDBVDaGFuZ2UgUmlzayBFc3Rp
bWF0b3IxDDAKBgNVBAMMA2NyZTCCASIwDQYJKoZIhvcNAQEBBQADggEPADCCAQoC
ggEBALp8iJuH/989KD77XZhqGcNNRw/hbo0a6CNXuxp1izzlfYl7LyTRCjHhv4rF
mRExQdFwnsnXlxHCZxOyw74XwZSUctgNWr6MZF4CIaBDFTSvueZTNv8mWfM6Cu/Y
TteO8U8DQZTuwzZlwgm7jtdC636oQQ9Q3vBBs7R3usV6kY/FoYZSwUGmnCH3q2P0
MNfXFIpSan3TCbs42WyEkXKrKPSlbWKkCWfsmlu54annXQaXY8C4X5XR1ZEMyeHQ
t20QxvXvEGiutUAqQVyolgc2YjklKlElj4KJ9PWAeBgGmAtaOVgxWQG89JScHbzb
kdrWP0rCaPptG4XZT4ZwsjXPzuECAwEAAaN8MHowDgYDVR0PAQH/BAQDAgWgMAkG
A1UdEwQCMAAwHQYDVR0lBBYwFAYIKwYBBQUHAwEGCCsGAQUFBwMCMB0GA1UdDgQW
BBR5tz1L3jXi7YaeNuZr5b7V6Ox5HDAfBgNVHSMEGDAWgBQgwtEHQemcFG+9e5Fn
LiL0iHc+jDANBgkqhkiG9w0BAQUFAAOCAgEAudLxopf16Nk1syODk/8/PKTh2Q27
1kIEvk1PwV5Gpx1jA7S9oA0nUunrcuQe99+ifgy5V1i+DwHUjO4SXBY6RjvhKasM
X0NzA2qOlFdK9P5/tK6/0MhJh8iEgw2slLPh/f8N4YQ2KJuL7MXRO72qvyqwyHCG
P2j75FKZJWDPQfaqEuMKMEXx98Avqg1p7Avuu3liwstsbpddvntwhmvaOW/OPvM2
9qfNmLL5iGwT8UafvDqQAKG56xuMKf928JTZosYm7KVEDE0Wal06MhCcYAarTDHt
Bc100penFt/bDstWbc4pGsCeJ6s7hVjn1jdK4o3MpFcAs8M7fOE0avdils7qA0TT
RR0DWzk9m7HXI7viXFWAIIcWSsaUTnJK0J3veiir4tcYM/4o69LgVuFqtOhuN82Q
TOzYezC154lfq48Sz/AtmWFnCVXIvsQuf445MczVNNwhNzS19QgBVf0T9D2tyHrv
7AmQW5eFLLdpUpBiY4AO/iWVWC6YcZGi5E134/aDG4eWN776nLW5BIVT6FRvxsUP
gZQROsARr/wq6aD/87qS4UZfssRl+gN17lfGLSTs8gBpehu2rkeX6qlCTqInVdoK
HUCLt0R/WsxQEfCfIVradmUTKH0I5sWVifowUAq98dyJJaXkvUwPNmS+ba2aMMKU
kyiERUpC8rBI+IM=
-----END CERTIFICATE-----
