Certificate:
    Data:
        Version: 3 (0x2)
        Serial Number: 4 (0x4)
        Signature Algorithm: sha1WithRSAEncryption
        Issuer: DC=test, DC=fcm, O=FCM Change Risk Estimator, OU=Root CA, CN=CRE PKI
        Validity
            Not Before: Sep 10 21:05:37 2020 GMT
            Not After : Sep 10 21:05:37 2030 GMT
        Subject: DC=test, DC=fcm, O=FCM Change Risk Estimator, OU=Change Risk Estimator, CN=cre
        Subject Public Key Info:
            Public Key Algorithm: rsaEncryption
                RSA Public-Key: (2048 bit)
                Modulus:
                    00:ba:7c:88:9b:87:ff:df:3d:28:3e:fb:5d:98:6a:
                    19:c3:4d:47:0f:e1:6e:8d:1a:e8:23:57:bb:1a:75:
                    8b:3c:e5:7d:89:7b:2f:24:d1:0a:31:e1:bf:8a:c5:
                    99:11:31:41:d1:70:9e:c9:d7:97:11:c2:67:13:b2:
                    c3:be:17:c1:94:94:72:d8:0d:5a:be:8c:64:5e:02:
                    21:a0:43:15:34:af:b9:e6:53:36:ff:26:59:f3:3a:
                    0a:ef:d8:4e:d7:8e:f1:4f:03:41:94:ee:c3:36:65:
                    c2:09:bb:8e:d7:42:eb:7e:a8:41:0f:50:de:f0:41:
                    b3:b4:77:ba:c5:7a:91:8f:c5:a1:86:52:c1:41:a6:
                    9c:21:f7:ab:63:f4:30:d7:d7:14:8a:52:6a:7d:d3:
                    09:bb:38:d9:6c:84:91:72:ab:28:f4:a5:6d:62:a4:
                    09:67:ec:9a:5b:b9:e1:a9:e7:5d:06:97:63:c0:b8:
                    5f:95:d1:d5:91:0c:c9:e1:d0:b7:6d:10:c6:f5:ef:
                    10:68:ae:b5:40:2a:41:5c:a8:96:07:36:62:39:25:
                    2a:51:25:8f:82:89:f4:f5:80:78:18:06:98:0b:5a:
                    39:58:31:59:01:bc:f4:94:9c:1d:bc:db:91:da:d6:
                    3f:4a:c2:68:fa:6d:1b:85:d9:4f:86:70:b2:35:cf:
                    ce:e1
                Exponent: 65537 (0x10001)
        X509v3 extensions:
            X509v3 Key Usage: critical
                Digital Signature, Key Encipherment
            X509v3 Basic Constraints: 
                CA:FALSE
            X509v3 Extended Key Usage: 
                TLS Web Server Authentication, TLS Web Client Authentication
            X509v3 Subject Key Identifier: 
                79:B7:3D:4B:DE:35:E2:ED:86:9E:36:E6:6B:E5:BE:D5:E8:EC:79:1C
            X509v3 Authority Key Identifier: 
                keyid:20:C2:D1:07:41:E9:9C:14:6F:BD:7B:91:67:2E:22:F4:88:77:3E:8C

    Signature Algorithm: sha1WithRSAEncryption
         bd:c1:9a:03:95:c2:be:4a:41:bb:bf:3d:1f:be:e6:78:1d:91:
         4c:ff:7b:7d:71:91:1d:13:05:4b:27:9e:9d:0e:14:39:ea:13:
         ab:d3:7a:20:84:17:07:a3:d0:f8:9f:50:75:eb:42:32:cb:3b:
         bb:99:6b:d3:00:24:68:a3:a9:73:22:af:da:38:c1:34:5b:3d:
         1d:0e:99:bc:f2:f2:5a:08:81:ed:11:49:3e:43:84:fb:e5:56:
         78:69:b9:59:88:40:e0:0c:bd:e0:e9:83:53:fe:8e:5e:b8:fc:
         fc:4b:92:85:20:ba:1f:41:59:a6:c0:46:f6:b2:7f:a7:47:49:
         d8:1e:ec:91:b5:55:dc:25:bc:c0:48:ae:40:2a:fb:60:ae:d6:
         40:be:b4:af:0d:42:80:29:10:75:b1:97:dc:2c:3c:2c:fb:2a:
         52:d8:e1:08:30:f5:de:1d:85:96:d8:34:66:e8:d0:d3:53:45:
         ab:89:64:ef:6c:b3:4d:89:bf:3c:90:bb:0b:88:43:cd:9b:aa:
         27:de:b0:e4:97:9e:c5:f6:3d:d1:05:f6:dd:2b:88:29:7e:5b:
         57:d4:f9:5b:f2:19:90:68:aa:3c:7a:ed:a2:0f:99:dd:2d:98:
         b7:d2:7b:8d:f9:ad:53:4c:c2:bd:4d:df:09:07:9d:ee:e1:0e:
         59:18:ee:59:96:36:ba:d9:af:48:af:df:3e:73:a4:e8:21:c1:
         0f:ef:17:ef:21:76:fb:10:9f:06:01:f9:b9:4e:2c:fc:9a:8c:
         04:f9:5b:43:82:93:d0:44:29:f4:0a:e8:1b:0a:b4:7d:95:f4:
         81:38:54:8f:29:1e:3f:be:23:c8:1b:d2:80:50:8b:ba:3d:5f:
         2e:11:6a:d9:90:02:2a:5a:c8:a3:1e:eb:48:20:3f:66:78:ce:
         2e:e1:67:5c:bc:29:00:0d:b5:31:c7:d0:91:38:72:4f:8b:e7:
         bd:80:48:8e:d4:1e:ae:93:b8:27:13:49:4a:06:b7:1c:e4:c8:
         6d:16:3f:d5:e6:db:49:d2:a1:7b:a1:21:88:72:b1:ba:05:5f:
         c7:ca:eb:1c:99:8c:9b:a1:8c:25:64:68:f5:fe:03:76:0b:cc:
         82:dd:a4:34:9f:1d:ff:f0:29:7c:b3:28:df:82:83:fd:0e:c9:
         c1:64:af:4a:ec:eb:47:5f:b1:7c:70:0f:34:19:1d:2a:69:92:
         ce:17:64:73:91:51:22:6c:8f:f7:65:96:ed:c5:02:7a:5b:e6:
         f7:b2:37:7d:d6:53:da:32:65:ca:95:0a:f7:b6:21:4b:75:b3:
         88:ba:60:7a:0d:14:55:eb:92:e2:ef:b4:0e:f8:9a:02:62:b4:
         74:43:ae:c7:63:b9:84:25
-----BEGIN CERTIFICATE-----
MIIE5zCCAs+gAwIBAgIBBDANBgkqhkiG9w0BAQUFADBzMRQwEgYKCZImiZPyLGQB
GRYEdGVzdDETMBEGCgmSJomT8ixkARkWA2ZjbTEiMCAGA1UECgwZRkNNIENoYW5n
ZSBSaXNrIEVzdGltYXRvcjEQMA4GA1UECwwHUm9vdCBDQTEQMA4GA1UEAwwHQ1JF
IFBLSTAeFw0yMDA5MTAyMTA1MzdaFw0zMDA5MTAyMTA1MzdaMH0xFDASBgoJkiaJ
k/IsZAEZFgR0ZXN0MRMwEQYKCZImiZPyLGQBGRYDZmNtMSIwIAYDVQQKDBlGQ00g
Q2hhbmdlIFJpc2sgRXN0aW1hdG9yMR4wHAYDVQQLDBVDaGFuZ2UgUmlzayBFc3Rp
bWF0b3IxDDAKBgNVBAMMA2NyZTCCASIwDQYJKoZIhvcNAQEBBQADggEPADCCAQoC
ggEBALp8iJuH/989KD77XZhqGcNNRw/hbo0a6CNXuxp1izzlfYl7LyTRCjHhv4rF
mRExQdFwnsnXlxHCZxOyw74XwZSUctgNWr6MZF4CIaBDFTSvueZTNv8mWfM6Cu/Y
TteO8U8DQZTuwzZlwgm7jtdC636oQQ9Q3vBBs7R3usV6kY/FoYZSwUGmnCH3q2P0
MNfXFIpSan3TCbs42WyEkXKrKPSlbWKkCWfsmlu54annXQaXY8C4X5XR1ZEMyeHQ
t20QxvXvEGiutUAqQVyolgc2YjklKlElj4KJ9PWAeBgGmAtaOVgxWQG89JScHbzb
kdrWP0rCaPptG4XZT4ZwsjXPzuECAwEAAaN8MHowDgYDVR0PAQH/BAQDAgWgMAkG
A1UdEwQCMAAwHQYDVR0lBBYwFAYIKwYBBQUHAwEGCCsGAQUFBwMCMB0GA1UdDgQW
BBR5tz1L3jXi7YaeNuZr5b7V6Ox5HDAfBgNVHSMEGDAWgBQgwtEHQemcFG+9e5Fn
LiL0iHc+jDANBgkqhkiG9w0BAQUFAAOCAgEAvcGaA5XCvkpBu789H77meB2RTP97
fXGRHRMFSyeenQ4UOeoTq9N6IIQXB6PQ+J9QdetCMss7u5lr0wAkaKOpcyKv2jjB
NFs9HQ6ZvPLyWgiB7RFJPkOE++VWeGm5WYhA4Ay94OmDU/6OXrj8/EuShSC6H0FZ
psBG9rJ/p0dJ2B7skbVV3CW8wEiuQCr7YK7WQL60rw1CgCkQdbGX3Cw8LPsqUtjh
CDD13h2Fltg0ZujQ01NFq4lk72yzTYm/PJC7C4hDzZuqJ96w5JeexfY90QX23SuI
KX5bV9T5W/IZkGiqPHrtog+Z3S2Yt9J7jfmtU0zCvU3fCQed7uEOWRjuWZY2utmv
SK/fPnOk6CHBD+8X7yF2+xCfBgH5uU4s/JqMBPlbQ4KT0EQp9AroGwq0fZX0gThU
jykeP74jyBvSgFCLuj1fLhFq2ZACKlrIox7rSCA/ZnjOLuFnXLwpAA21McfQkThy
T4vnvYBIjtQerpO4JxNJSga3HOTIbRY/1ebbSdKhe6EhiHKxugVfx8rrHJmMm6GM
JWRo9f4DdgvMgt2kNJ8d//ApfLMo34KD/Q7JwWSvSuzrR1+xfHAPNBkdKmmSzhdk
c5FRImyP92WW7cUCelvm97I3fdZT2jJlypUK97YhS3WziLpgeg0UVeuS4u+0Dvia
AmK0dEOux2O5hCU=
-----END CERTIFICATE-----
