Certificate:
    Data:
        Version: 3 (0x2)
        Serial Number: 5 (0x5)
        Signature Algorithm: sha1WithRSAEncryption
        Issuer: DC=test, DC=fcm, O=FCM Change Risk Estimator, OU=Root CA, CN=CRE PKI
        Validity
            Not Before: Sep 10 21:10:29 2020 GMT
            Not After : Sep 10 21:10:29 2030 GMT
        Subject: DC=test, DC=fcm, O=FCM Change Risk Estimator, OU=Change Risk Estimator, CN=cre
        Subject Public Key Info:
            Public Key Algorithm: rsaEncryption
                RSA Public-Key: (2048 bit)
                Modulus:
                    00:ba:7c:88:9b:87:ff:df:3d:28:3e:fb:5d:98:6a:
                    19:c3:4d:47:0f:e1:6e:8d:1a:e8:23:57:bb:1a:75:
                    8b:3c:e5:7d:89:7b:2f:24:d1:0a:31:e1:bf:8a:c5:
                    99:11:31:41:d1:70:9e:c9:d7:97:11:c2:67:13:b2:
                    c3:be:17:c1:94:94:72:d8:0d:5a:be:8c:64:5e:02:
                    21:a0:43:15:34:af:b9:e6:53:36:ff:26:59:f3:3a:
                    0a:ef:d8:4e:d7:8e:f1:4f:03:41:94:ee:c3:36:65:
                    c2:09:bb:8e:d7:42:eb:7e:a8:41:0f:50:de:f0:41:
                    b3:b4:77:ba:c5:7a:91:8f:c5:a1:86:52:c1:41:a6:
                    9c:21:f7:ab:63:f4:30:d7:d7:14:8a:52:6a:7d:d3:
                    09:bb:38:d9:6c:84:91:72:ab:28:f4:a5:6d:62:a4:
                    09:67:ec:9a:5b:b9:e1:a9:e7:5d:06:97:63:c0:b8:
                    5f:95:d1:d5:91:0c:c9:e1:d0:b7:6d:10:c6:f5:ef:
                    10:68:ae:b5:40:2a:41:5c:a8:96:07:36:62:39:25:
                    2a:51:25:8f:82:89:f4:f5:80:78:18:06:98:0b:5a:
                    39:58:31:59:01:bc:f4:94:9c:1d:bc:db:91:da:d6:
                    3f:4a:c2:68:fa:6d:1b:85:d9:4f:86:70:b2:35:cf:
                    ce:e1
                Exponent: 65537 (0x10001)
        X509v3 extensions:
            X509v3 Key Usage: critical
                Digital Signature, Key Encipherment
            X509v3 Basic Constraints: 
                CA:FALSE
            X509v3 Extended Key Usage: 
                TLS Web Server Authentication, TLS Web Client Authentication
            X509v3 Subject Key Identifier: 
                79:B7:3D:4B:DE:35:E2:ED:86:9E:36:E6:6B:E5:BE:D5:E8:EC:79:1C
            X509v3 Authority Key Identifier: 
                keyid:20:C2:D1:07:41:E9:9C:14:6F:BD:7B:91:67:2E:22:F4:88:77:3E:8C

    Signature Algorithm: sha1WithRSAEncryption
         a0:83:a5:93:c7:38:33:c9:42:55:77:c5:62:3b:a8:d9:0c:ed:
         3c:02:b2:80:2a:20:46:8b:b4:b0:31:60:d8:67:68:ce:e8:0f:
         43:9d:d0:35:25:d8:76:87:78:c9:c0:df:f5:1e:ae:62:f5:9b:
         76:c8:01:44:a8:e8:46:10:c7:2d:83:9a:38:7a:45:9f:6d:5d:
         c8:20:8a:35:d0:2e:3d:b1:52:06:3b:20:9a:8a:e6:6a:4c:29:
         e1:17:d1:42:e8:d8:19:cd:6d:7e:da:a0:46:f8:2c:65:39:15:
         3b:41:f6:67:0c:22:7f:b4:bf:5a:93:f4:22:18:1a:34:f4:af:
         a6:f2:df:59:7f:27:25:ec:50:6c:19:cd:60:f8:54:36:83:e9:
         d6:de:ea:6e:97:f7:6b:5e:e3:c1:ce:ca:65:33:48:8f:c2:75:
         e5:4f:76:5c:a9:d3:21:14:71:ad:a1:9c:16:e3:b8:8f:14:36:
         06:01:d8:ad:fd:d0:c3:f2:eb:53:35:a1:e0:59:16:93:71:63:
         5b:27:ec:39:89:7c:d6:cc:51:40:91:df:bd:74:dc:ed:87:05:
         7d:5b:3b:84:1a:f4:10:49:7e:35:73:ba:e8:e9:b9:58:43:18:
         3a:b0:f8:49:f4:05:e9:b5:77:5f:77:b7:78:d0:10:f1:6a:f0:
         82:84:6d:a0:a4:d7:fa:e0:f8:2d:86:47:35:f7:07:81:f1:29:
         9b:11:2c:41:5d:c1:24:a6:3a:1f:b4:5c:c4:73:cd:43:2f:fc:
         12:6a:b5:8a:a9:44:27:07:14:33:d6:29:54:1c:c2:f9:85:ea:
         5e:d4:9a:e7:24:8b:ba:34:f4:98:b3:43:28:d9:d8:5c:69:6f:
         a6:14:6d:c7:b0:06:51:7a:f3:65:d3:1e:ea:77:04:d3:cd:ba:
         64:30:70:1b:5e:22:24:71:70:b6:a7:f1:72:88:7a:da:76:32:
         fa:61:5c:2c:d0:67:12:9d:86:ca:af:3f:3d:f0:0d:ac:95:2c:
         49:71:0b:c3:23:7c:7f:32:07:8c:64:3f:68:ca:99:a6:0e:a9:
         77:8e:a6:a5:e1:7a:96:3b:07:0f:ec:66:50:d8:2e:b3:b6:fe:
         0d:0d:b2:74:55:e7:28:ad:d9:9b:8f:1f:1f:13:7c:a8:d9:5f:
         d5:a8:b1:55:a3:e5:72:56:8d:37:08:17:c5:95:23:07:da:5f:
         40:88:18:e3:4a:a4:0b:99:79:e0:5c:c5:70:a0:0e:91:dc:29:
         25:83:cb:eb:8c:3e:cc:45:39:5a:9b:45:16:71:da:b5:4e:a0:
         05:1d:a7:db:87:c6:9b:d8:ac:4b:94:43:1c:db:03:8b:85:94:
         d3:29:fd:b3:de:9b:8a:0d
-----BEGIN CERTIFICATE-----
MIIE5zCCAs+gAwIBAgIBBTANBgkqhkiG9w0BAQUFADBzMRQwEgYKCZImiZPyLGQB
GRYEdGVzdDETMBEGCgmSJomT8ixkARkWA2ZjbTEiMCAGA1UECgwZRkNNIENoYW5n
ZSBSaXNrIEVzdGltYXRvcjEQMA4GA1UECwwHUm9vdCBDQTEQMA4GA1UEAwwHQ1JF
IFBLSTAeFw0yMDA5MTAyMTEwMjlaFw0zMDA5MTAyMTEwMjlaMH0xFDASBgoJkiaJ
k/IsZAEZFgR0ZXN0MRMwEQYKCZImiZPyLGQBGRYDZmNtMSIwIAYDVQQKDBlGQ00g
Q2hhbmdlIFJpc2sgRXN0aW1hdG9yMR4wHAYDVQQLDBVDaGFuZ2UgUmlzayBFc3Rp
bWF0b3IxDDAKBgNVBAMMA2NyZTCCASIwDQYJKoZIhvcNAQEBBQADggEPADCCAQoC
ggEBALp8iJuH/989KD77XZhqGcNNRw/hbo0a6CNXuxp1izzlfYl7LyTRCjHhv4rF
mRExQdFwnsnXlxHCZxOyw74XwZSUctgNWr6MZF4CIaBDFTSvueZTNv8mWfM6Cu/Y
TteO8U8DQZTuwzZlwgm7jtdC636oQQ9Q3vBBs7R3usV6kY/FoYZSwUGmnCH3q2P0
MNfXFIpSan3TCbs42WyEkXKrKPSlbWKkCWfsmlu54annXQaXY8C4X5XR1ZEMyeHQ
t20QxvXvEGiutUAqQVyolgc2YjklKlElj4KJ9PWAeBgGmAtaOVgxWQG89JScHbzb
kdrWP0rCaPptG4XZT4ZwsjXPzuECAwEAAaN8MHowDgYDVR0PAQH/BAQDAgWgMAkG
A1UdEwQCMAAwHQYDVR0lBBYwFAYIKwYBBQUHAwEGCCsGAQUFBwMCMB0GA1UdDgQW
BBR5tz1L3jXi7YaeNuZr5b7V6Ox5HDAfBgNVHSMEGDAWgBQgwtEHQemcFG+9e5Fn
LiL0iHc+jDANBgkqhkiG9w0BAQUFAAOCAgEAoIOlk8c4M8lCVXfFYjuo2QztPAKy
gCogRou0sDFg2GdozugPQ53QNSXYdod4ycDf9R6uYvWbdsgBRKjoRhDHLYOaOHpF
n21dyCCKNdAuPbFSBjsgmormakwp4RfRQujYGc1tftqgRvgsZTkVO0H2Zwwif7S/
WpP0IhgaNPSvpvLfWX8nJexQbBnNYPhUNoPp1t7qbpf3a17jwc7KZTNIj8J15U92
XKnTIRRxraGcFuO4jxQ2BgHYrf3Qw/LrUzWh4FkWk3FjWyfsOYl81sxRQJHfvXTc
7YcFfVs7hBr0EEl+NXO66Om5WEMYOrD4SfQF6bV3X3e3eNAQ8WrwgoRtoKTX+uD4
LYZHNfcHgfEpmxEsQV3BJKY6H7RcxHPNQy/8Emq1iqlEJwcUM9YpVBzC+YXqXtSa
5ySLujT0mLNDKNnYXGlvphRtx7AGUXrzZdMe6ncE0826ZDBwG14iJHFwtqfxcoh6
2nYy+mFcLNBnEp2Gyq8/PfANrJUsSXELwyN8fzIHjGQ/aMqZpg6pd46mpeF6ljsH
D+xmUNgus7b+DQ2ydFXnKK3Zm48fHxN8qNlf1aixVaPlclaNNwgXxZUjB9pfQIgY
40qkC5l54FzFcKAOkdwpJYPL64w+zEU5WptFFnHatU6gBR2n24fGm9isS5RDHNsD
i4WU0yn9s96big0=
-----END CERTIFICATE-----
